; Function Attrs: mustprogress nounwind uwtable
define void @_ZN6Assimp8Importer9FreeSceneEv(ptr nocapture noundef nonnull readonly align 8 dereferenceable(8) %this) local_unnamed_addr #1 align 2 {
entry:
  %ref.tmp.i = alloca %"class.std::__exception_ptr::exception_ptr", align 8
  %ref.tmp = alloca %"class.std::__cxx11::basic_string", align 8
  %0 = load ptr, ptr %this, align 8
  %mScene = getelementptr inbounds i8, ptr %0, i64 80
  %1 = load ptr, ptr %mScene, align 8
  %isnull = icmp eq ptr %1, null
  br i1 %isnull, label %delete.end, label %delete.notnull

delete.notnull:                                   ; preds = %entry
  tail call void @_ZN7aiSceneD1Ev(ptr noundef nonnull align 8 dereferenceable(1168) %1) #25
  tail call void @_ZdlPv(ptr noundef nonnull %1) #27
  %.pre = load ptr, ptr %this, align 8
  br label %delete.end

delete.end:                                       ; preds = %delete.notnull, %entry
  %2 = phi ptr [ %.pre, %delete.notnull ], [ %0, %entry ]
  %mScene3 = getelementptr inbounds i8, ptr %2, i64 80
  store ptr null, ptr %mScene3, align 8
  call void @_ZNSt7__cxx1112basic_stringIcSt11char_traitsIcESaIcEEC1Ev(ptr noundef nonnull align 8 dereferenceable(32) %ref.tmp) #25
  %3 = load ptr, ptr %this, align 8
  %mErrorString = getelementptr inbounds i8, ptr %3, i64 88
  %call = call noundef nonnull align 8 dereferenceable(32) ptr @_ZNSt7__cxx1112basic_stringIcSt11char_traitsIcESaIcEEaSEOS4_(ptr noundef nonnull align 8 dereferenceable(32) %mErrorString, ptr noundef nonnull align 8 dereferenceable(32) %ref.tmp) #25
  call void @_ZNSt7__cxx1112basic_stringIcSt11char_traitsIcESaIcEED1Ev(ptr noundef nonnull align 8 dereferenceable(32) %ref.tmp) #25
  %4 = load ptr, ptr %this, align 8
  %mException = getelementptr inbounds i8, ptr %4, i64 120
  call void @llvm.lifetime.start.p0(i64 8, ptr nonnull %ref.tmp.i)
  %5 = load ptr, ptr %mException, align 8
  store ptr %5, ptr %ref.tmp.i, align 8
  store ptr null, ptr %mException, align 8
  %tobool.not.i.i = icmp eq ptr %5, null
  br i1 %tobool.not.i.i, label %_ZNSt15__exception_ptr13exception_ptraSEOS0_.exit.thread, label %_ZNSt15__exception_ptr13exception_ptraSEOS0_.exit

_ZNSt15__exception_ptr13exception_ptraSEOS0_.exit.thread: ; preds = %delete.end
  call void @llvm.lifetime.end.p0(i64 8, ptr nonnull %ref.tmp.i)
  br label %_ZNSt15__exception_ptr13exception_ptrD2Ev.exit

_ZNSt15__exception_ptr13exception_ptraSEOS0_.exit: ; preds = %delete.end
  call void @_ZNSt15__exception_ptr13exception_ptr10_M_releaseEv(ptr noundef nonnull align 8 dereferenceable(8) %ref.tmp.i) #25
  call void @llvm.lifetime.end.p0(i64 8, ptr nonnull %ref.tmp.i)
  br label %_ZNSt15__exception_ptr13exception_ptrD2Ev.exit

_ZNSt15__exception_ptr13exception_ptrD2Ev.exit:   ; preds = %_ZNSt15__exception_ptr13exception_ptraSEOS0_.exit, %_ZNSt15__exception_ptr13exception_ptraSEOS0_.exit.thread
  ret void
}